; Function Attrs: nounwind uwtable
define dso_local ptr @connTypeOfCluster() local_unnamed_addr #0 {
  %1 = load i32, ptr getelementptr inbounds nuw (i8, ptr @server, i64 8160), align 8, !tbaa !10
  %.not = icmp eq i32 %1, 0
  br i1 %.not, label %4, label %2

2:                                                ; preds = %0
  %3 = tail call ptr @connectionTypeTls() #16
  br label %6

4:                                                ; preds = %0
  %5 = tail call ptr @connectionTypeTcp() #16
  br label %6

6:                                                ; preds = %4, %2
  %.0 = phi ptr [ %3, %2 ], [ %5, %4 ]
  ret ptr %.0
}